GAS LISTING /tmp/ccDYKsyR.s 			page 1


   1              		.file	"main.c"
   2              	# GNU C17 (Ubuntu 9.3.0-17ubuntu1~20.04) version 9.3.0 (x86_64-linux-gnu)
   3              	#	compiled by GNU C version 9.3.0, GMP version 6.2.0, MPFR version 4.0.2, MPC version 1.1.0, isl ve
   4              	
   5              	# GGC heuristics: --param ggc-min-expand=100 --param ggc-min-heapsize=131072
   6              	# options passed:  -imultiarch x86_64-linux-gnu main.c
   7              	# -mno-accumulate-outgoing-args -mtune=generic -march=x86-64 -g
   8              	# -fverbose-asm -fasynchronous-unwind-tables -fstack-protector-strong
   9              	# -Wformat -Wformat-security -fstack-clash-protection -fcf-protection
  10              	# options enabled:  -fPIC -fPIE -faggressive-loop-optimizations
  11              	# -fassume-phsa -fasynchronous-unwind-tables -fauto-inc-dec -fcommon
  12              	# -fdelete-null-pointer-checks -fdwarf2-cfi-asm -fearly-inlining
  13              	# -feliminate-unused-debug-types -ffp-int-builtin-inexact -ffunction-cse
  14              	# -fgcse-lm -fgnu-runtime -fgnu-unique -fident -finline-atomics
  15              	# -fipa-stack-alignment -fira-hoist-pressure -fira-share-save-slots
  16              	# -fira-share-spill-slots -fivopts -fkeep-static-consts
  17              	# -fleading-underscore -flifetime-dse -flto-odr-type-merging -fmath-errno
  18              	# -fmerge-debug-strings -fpeephole -fplt -fprefetch-loop-arrays
  19              	# -freg-struct-return -fsched-critical-path-heuristic
  20              	# -fsched-dep-count-heuristic -fsched-group-heuristic -fsched-interblock
  21              	# -fsched-last-insn-heuristic -fsched-rank-heuristic -fsched-spec
  22              	# -fsched-spec-insn-heuristic -fsched-stalled-insns-dep -fschedule-fusion
  23              	# -fsemantic-interposition -fshow-column -fshrink-wrap-separate
  24              	# -fsigned-zeros -fsplit-ivs-in-unroller -fssa-backprop
  25              	# -fstack-clash-protection -fstack-protector-strong -fstdarg-opt
  26              	# -fstrict-volatile-bitfields -fsync-libcalls -ftrapping-math -ftree-cselim
  27              	# -ftree-forwprop -ftree-loop-if-convert -ftree-loop-im -ftree-loop-ivcanon
  28              	# -ftree-loop-optimize -ftree-parallelize-loops= -ftree-phiprop
  29              	# -ftree-reassoc -ftree-scev-cprop -funit-at-a-time -funwind-tables
  30              	# -fverbose-asm -fzero-initialized-in-bss -m128bit-long-double -m64 -m80387
  31              	# -malign-stringops -mavx256-split-unaligned-load
  32              	# -mavx256-split-unaligned-store -mfancy-math-387 -mfp-ret-in-387 -mfxsr
  33              	# -mglibc -mieee-fp -mlong-double-80 -mmmx -mno-sse4 -mpush-args -mred-zone
  34              	# -msse -msse2 -mstv -mtls-direct-seg-refs -mvzeroupper
  35              	
  36              		.text
  37              	.Ltext0:
  38              		.globl	callee
  39              		.type	callee, @function
  40              	callee:
  41              	.LFB0:
  42              		.file 1 "main.c"
   1:main.c        **** #include <stdio.h>
   2:main.c        **** 
   3:main.c        **** int callee(int x, int y) {
  43              		.loc 1 3 26
  44              		.cfi_startproc
  45 0000 F30F1EFA 		endbr64	
  46 0004 55       		pushq	%rbp	#
  47              		.cfi_def_cfa_offset 16
  48              		.cfi_offset 6, -16
  49 0005 4889E5   		movq	%rsp, %rbp	#,
  50              		.cfi_def_cfa_register 6
  51 0008 897DFC   		movl	%edi, -4(%rbp)	# x, x
  52 000b 8975F8   		movl	%esi, -8(%rbp)	# y, y
  53              	# main.c:4:     return 1;
   4:main.c        ****     return 1;
GAS LISTING /tmp/ccDYKsyR.s 			page 2


  54              		.loc 1 4 12
  55 000e B8010000 		movl	$1, %eax	#, _1
  55      00
  56              	# main.c:5: }
   5:main.c        **** }
  57              		.loc 1 5 1
  58 0013 5D       		popq	%rbp	#
  59              		.cfi_def_cfa 7, 8
  60 0014 C3       		ret	
  61              		.cfi_endproc
  62              	.LFE0:
  63              		.size	callee, .-callee
  64              		.globl	main
  65              		.type	main, @function
  66              	main:
  67              	.LFB1:
   6:main.c        **** 
   7:main.c        **** void main() {
  68              		.loc 1 7 13
  69              		.cfi_startproc
  70 0015 F30F1EFA 		endbr64	
  71 0019 55       		pushq	%rbp	#
  72              		.cfi_def_cfa_offset 16
  73              		.cfi_offset 6, -16
  74 001a 4889E5   		movq	%rsp, %rbp	#,
  75              		.cfi_def_cfa_register 6
  76 001d 4883EC10 		subq	$16, %rsp	#,
  77              	# main.c:9:     a = 13;
   8:main.c        ****     int a,b;
   9:main.c        ****     a = 13;
  78              		.loc 1 9 7
  79 0021 C745F80D 		movl	$13, -8(%rbp)	#, a
  79      000000
  80              	# main.c:10:     b = 17;
  10:main.c        ****     b = 17;
  81              		.loc 1 10 7
  82 0028 C745FC11 		movl	$17, -4(%rbp)	#, b
  82      000000
  83              	# main.c:11:     callee(a, b);
  11:main.c        ****     callee(a, b);
  84              		.loc 1 11 5
  85 002f 8B55FC   		movl	-4(%rbp), %edx	# b, tmp82
  86 0032 8B45F8   		movl	-8(%rbp), %eax	# a, tmp83
  87 0035 89D6     		movl	%edx, %esi	# tmp82,
  88 0037 89C7     		movl	%eax, %edi	# tmp83,
  89 0039 E8000000 		call	callee	#
  89      00
  90              	# main.c:12: }
  12:main.c        **** }
  91              		.loc 1 12 1
  92 003e 90       		nop	
  93 003f C9       		leave	
  94              		.cfi_def_cfa 7, 8
  95 0040 C3       		ret	
  96              		.cfi_endproc
  97              	.LFE1:
  98              		.size	main, .-main
GAS LISTING /tmp/ccDYKsyR.s 			page 3


  99              	.Letext0:
 100              		.file 2 "/usr/lib/gcc/x86_64-linux-gnu/9/include/stddef.h"
 101              		.file 3 "/usr/include/x86_64-linux-gnu/bits/types.h"
 102              		.file 4 "/usr/include/x86_64-linux-gnu/bits/types/struct_FILE.h"
 103              		.file 5 "/usr/include/x86_64-linux-gnu/bits/types/FILE.h"
 104              		.file 6 "/usr/include/stdio.h"
 105              		.file 7 "/usr/include/x86_64-linux-gnu/bits/sys_errlist.h"
 936              		.section	.note.GNU-stack,"",@progbits
 937              		.section	.note.gnu.property,"a"
 938              		.align 8
 939 0000 04000000 		.long	 1f - 0f
 940 0004 10000000 		.long	 4f - 1f
 941 0008 05000000 		.long	 5
 942              	0:
 943 000c 474E5500 		.string	 "GNU"
 944              	1:
 945              		.align 8
 946 0010 020000C0 		.long	 0xc0000002
 947 0014 04000000 		.long	 3f - 2f
 948              	2:
 949 0018 03000000 		.long	 0x3
 950              	3:
 951 001c 00000000 		.align 8
 952              	4:
